target datalayout = "e-m:e-p270:32:32-p271:32:32-p272:64:64-i64:64-i128:128-f80:128-n8:16:32:64-S128"
target triple = "x86_64-pc-linux-gnu"

%struct.SplashStream = type { ptr, ptr, ptr, %union.anon }
%union.anon = type { %struct.anon.0 }
%struct.anon.0 = type { ptr, ptr }

; Function Attrs: nounwind uwtable
define internal i32 @peekMem(ptr noundef %0) #0 {
  %2 = alloca i32, align 4
  %3 = alloca ptr, align 8
  %4 = alloca ptr, align 8
  %5 = alloca ptr, align 8
  store ptr %0, ptr %3, align 8
  %6 = load ptr, ptr %3, align 8
  %7 = getelementptr inbounds %struct.SplashStream, ptr %6, i32 0, i32 3
  %8 = getelementptr inbounds %struct.anon.0, ptr %7, i32 0, i32 0
  %9 = load ptr, ptr %8, align 8
  store ptr %9, ptr %4, align 8
  %10 = load ptr, ptr %3, align 8
  %11 = getelementptr inbounds %struct.SplashStream, ptr %10, i32 0, i32 3
  %12 = getelementptr inbounds %struct.anon.0, ptr %11, i32 0, i32 1
  %13 = load ptr, ptr %12, align 8
  store ptr %13, ptr %5, align 8
  %14 = load ptr, ptr %4, align 8
  %15 = load ptr, ptr %5, align 8
  %16 = icmp uge ptr %14, %15
  br i1 %16, label %17, label %18

17:                                               ; preds = %1
  store i32 -1, ptr %2, align 4
  br label %22

18:                                               ; preds = %1
  %19 = load ptr, ptr %4, align 8
  %20 = load i8, ptr %19, align 1
  %21 = zext i8 %20 to i32
  store i32 %21, ptr %2, align 4
  br label %22

22:                                               ; preds = %18, %17
  %23 = load i32, ptr %2, align 4
  ret i32 %23
}