; Function Attrs: mustprogress nofree norecurse nosync nounwind willreturn memory(read, inaccessiblemem: none) uwtable
define internal range(i32 -1, 256) i32 @peekMem(ptr nocapture noundef readonly %0) #12 {
  %2 = getelementptr inbounds i8, ptr %0, i64 24
  %3 = load ptr, ptr %2, align 8
  %4 = getelementptr inbounds i8, ptr %0, i64 32
  %5 = load ptr, ptr %4, align 8
  %.not = icmp ult ptr %3, %5
  br i1 %.not, label %6, label %9

6:                                                ; preds = %1
  %7 = load i8, ptr %3, align 1
  %8 = zext i8 %7 to i32
  br label %9

9:                                                ; preds = %1, %6
  %.0 = phi i32 [ %8, %6 ], [ -1, %1 ]
  ret i32 %.0
}